; ModuleID = '11/804.c'
source_filename = "11/804.c"
target datalayout = "e-m:e-p270:32:32-p271:32:32-p272:64:64-i64:64-f80:128-n8:16:32:64-S128"
target triple = "x86_64-pc-linux-gnu"

@.str = private unnamed_addr constant [9 x i8] c"%d %d %d\00", align 1
@.str.1 = private unnamed_addr constant [3 x i8] c"%d\00", align 1

; Function Attrs: noinline nounwind uwtable
define dso_local i32 @f(i32 %0) #0 {
  %2 = alloca i32, align 4
  %3 = alloca i32, align 4
  %4 = alloca i32, align 4
  store i32 %0, i32* %3, align 4
  %5 = load i32, i32* %3, align 4
  %6 = srem i32 %5, 4
  %7 = icmp eq i32 %6, 0
  br i1 %7, label %8, label %19

8:                                                ; preds = %1
  %9 = load i32, i32* %3, align 4
  %10 = srem i32 %9, 100
  %11 = icmp eq i32 %10, 0
  br i1 %11, label %12, label %18

12:                                               ; preds = %8
  %13 = load i32, i32* %3, align 4
  %14 = srem i32 %13, 400
  %15 = icmp eq i32 %14, 0
  br i1 %15, label %16, label %17

16:                                               ; preds = %12
  store i32 1, i32* %2, align 4
  br label %20

17:                                               ; preds = %12
  store i32 0, i32* %2, align 4
  br label %20

18:                                               ; preds = %8
  store i32 1, i32* %2, align 4
  br label %20

19:                                               ; preds = %1
  store i32 0, i32* %2, align 4
  br label %20

20:                                               ; preds = %19, %18, %17, %16
  %21 = load i32, i32* %2, align 4
  ret i32 %21
}

; Function Attrs: noinline nounwind uwtable
define dso_local i32 @main() #0 {
  %1 = alloca i32, align 4
  %2 = alloca i32, align 4
  %3 = alloca i32, align 4
  %4 = alloca i32, align 4
  %5 = alloca i32, align 4
  %6 = alloca i32, align 4
  %7 = alloca [13 x i32], align 16
  store i32 0, i32* %1, align 4
  %8 = getelementptr inbounds [13 x i32], [13 x i32]* %7, i64 0, i64 1
  store i32 31, i32* %8, align 4
  %9 = getelementptr inbounds [13 x i32], [13 x i32]* %7, i64 0, i64 3
  store i32 31, i32* %9, align 4
  %10 = getelementptr inbounds [13 x i32], [13 x i32]* %7, i64 0, i64 4
  store i32 30, i32* %10, align 16
  %11 = getelementptr inbounds [13 x i32], [13 x i32]* %7, i64 0, i64 5
  store i32 31, i32* %11, align 4
  %12 = getelementptr inbounds [13 x i32], [13 x i32]* %7, i64 0, i64 6
  store i32 30, i32* %12, align 8
  %13 = getelementptr inbounds [13 x i32], [13 x i32]* %7, i64 0, i64 7
  store i32 31, i32* %13, align 4
  %14 = getelementptr inbounds [13 x i32], [13 x i32]* %7, i64 0, i64 8
  store i32 31, i32* %14, align 16
  %15 = getelementptr inbounds [13 x i32], [13 x i32]* %7, i64 0, i64 9
  store i32 30, i32* %15, align 4
  %16 = getelementptr inbounds [13 x i32], [13 x i32]* %7, i64 0, i64 10
  store i32 31, i32* %16, align 8
  %17 = getelementptr inbounds [13 x i32], [13 x i32]* %7, i64 0, i64 11
  store i32 30, i32* %17, align 4
  %18 = getelementptr inbounds [13 x i32], [13 x i32]* %7, i64 0, i64 12
  store i32 30, i32* %18, align 16
  store i32 0, i32* %5, align 4
  %19 = call i32 (i8*, ...) @__isoc99_scanf(i8* getelementptr inbounds ([9 x i8], [9 x i8]* @.str, i64 0, i64 0), i32* %2, i32* %3, i32* %4)
  %20 = load i32, i32* %2, align 4
  %21 = call i32 @f(i32 %20)
  %22 = icmp eq i32 %21, 0
  br i1 %22, label %23, label %25

23:                                               ; preds = %0
  %24 = getelementptr inbounds [13 x i32], [13 x i32]* %7, i64 0, i64 2
  store i32 28, i32* %24, align 8
  br label %25

25:                                               ; preds = %23, %0
  %26 = load i32, i32* %2, align 4
  %27 = call i32 @f(i32 %26)
  %28 = icmp eq i32 %27, 1
  br i1 %28, label %29, label %31

29:                                               ; preds = %25
  %30 = getelementptr inbounds [13 x i32], [13 x i32]* %7, i64 0, i64 2
  store i32 29, i32* %30, align 8
  br label %31

31:                                               ; preds = %29, %25
  store i32 1, i32* %6, align 4
  br label %32

32:                                               ; preds = %43, %31
  %33 = load i32, i32* %6, align 4
  %34 = load i32, i32* %3, align 4
  %35 = icmp slt i32 %33, %34
  br i1 %35, label %36, label %46

36:                                               ; preds = %32
  %37 = load i32, i32* %6, align 4
  %38 = sext i32 %37 to i64
  %39 = getelementptr inbounds [13 x i32], [13 x i32]* %7, i64 0, i64 %38
  %40 = load i32, i32* %39, align 4
  %41 = load i32, i32* %5, align 4
  %42 = add nsw i32 %40, %41
  store i32 %42, i32* %5, align 4
  br label %43

43:                                               ; preds = %36
  %44 = load i32, i32* %6, align 4
  %45 = add nsw i32 %44, 1
  store i32 %45, i32* %6, align 4
  br label %32

46:                                               ; preds = %32
  %47 = load i32, i32* %5, align 4
  %48 = load i32, i32* %4, align 4
  %49 = add nsw i32 %47, %48
  store i32 %49, i32* %5, align 4
  %50 = load i32, i32* %5, align 4
  %51 = call i32 (i8*, ...) @printf(i8* getelementptr inbounds ([3 x i8], [3 x i8]* @.str.1, i64 0, i64 0), i32 %50)
  %52 = call i32 @getchar()
  %53 = call i32 @getchar()
  %54 = load i32, i32* %1, align 4
  ret i32 %54
}

declare dso_local i32 @__isoc99_scanf(i8*, ...) #1

declare dso_local i32 @printf(i8*, ...) #1

declare dso_local i32 @getchar() #1


!llvm.module.flags = !{!0}
!llvm.ident = !{!1}

!0 = !{i32 1, !"wchar_size", i32 4}
!1 = !{!"clang version 10.0.0-4ubuntu1 "}
