; ModuleID = 'source-C-CXX/10/804.c'
source_filename = "source-C-CXX/10/804.c"
target datalayout = "e-m:e-p270:32:32-p271:32:32-p272:64:64-i64:64-f80:128-n8:16:32:64-S128"
target triple = "x86_64-pc-linux-gnu"

%struct._IO_FILE = type { i32, i8*, i8*, i8*, i8*, i8*, i8*, i8*, i8*, i8*, i8*, i8*, %struct._IO_marker*, %struct._IO_FILE*, i32, i32, i64, i16, i8, [1 x i8], i8*, i64, %struct._IO_codecvt*, %struct._IO_wide_data*, %struct._IO_FILE*, i8*, i64, i32, [20 x i8] }
%struct._IO_marker = type opaque
%struct._IO_codecvt = type opaque
%struct._IO_wide_data = type opaque

@.str = private unnamed_addr constant [9 x i8] c"%d %d %d\00", align 1
@.str.1 = private unnamed_addr constant [3 x i8] c"%d\00", align 1
@stdin = external local_unnamed_addr global %struct._IO_FILE*, align 8

; Function Attrs: mustprogress nofree norecurse nosync nounwind readnone sspstrong uwtable willreturn
define dso_local i32 @f(i32 %0) local_unnamed_addr #0 {
  %2 = and i32 %0, 3
  %3 = icmp eq i32 %2, 0
  br i1 %3, label %4, label %11

4:                                                ; preds = %1
  %5 = srem i32 %0, 100
  %6 = icmp eq i32 %5, 0
  br i1 %6, label %7, label %11

7:                                                ; preds = %4
  %8 = srem i32 %0, 400
  %9 = icmp eq i32 %8, 0
  %10 = zext i1 %9 to i32
  br label %11

11:                                               ; preds = %1, %4, %7
  %12 = phi i32 [ %10, %7 ], [ 1, %4 ], [ 0, %1 ]
  ret i32 %12
}

; Function Attrs: argmemonly mustprogress nofree nosync nounwind willreturn
declare void @llvm.lifetime.start.p0i8(i64 immarg, i8* nocapture) #1

; Function Attrs: argmemonly mustprogress nofree nosync nounwind willreturn
declare void @llvm.lifetime.end.p0i8(i64 immarg, i8* nocapture) #1

; Function Attrs: nofree nounwind sspstrong uwtable
define dso_local i32 @main() local_unnamed_addr #2 {
  %1 = alloca i32, align 4
  %2 = alloca i32, align 4
  %3 = alloca i32, align 4
  %4 = alloca [13 x i32], align 16
  %5 = bitcast i32* %1 to i8*
  call void @llvm.lifetime.start.p0i8(i64 4, i8* nonnull %5) #5
  %6 = bitcast i32* %2 to i8*
  call void @llvm.lifetime.start.p0i8(i64 4, i8* nonnull %6) #5
  %7 = bitcast i32* %3 to i8*
  call void @llvm.lifetime.start.p0i8(i64 4, i8* nonnull %7) #5
  %8 = bitcast [13 x i32]* %4 to i8*
  call void @llvm.lifetime.start.p0i8(i64 52, i8* nonnull %8) #5
  %9 = getelementptr inbounds [13 x i32], [13 x i32]* %4, i64 0, i64 1
  store i32 31, i32* %9, align 4, !tbaa !5
  %10 = getelementptr inbounds [13 x i32], [13 x i32]* %4, i64 0, i64 3
  %11 = bitcast i32* %10 to <4 x i32>*
  store <4 x i32> <i32 31, i32 30, i32 31, i32 30>, <4 x i32>* %11, align 4, !tbaa !5
  %12 = getelementptr inbounds [13 x i32], [13 x i32]* %4, i64 0, i64 7
  %13 = bitcast i32* %12 to <4 x i32>*
  store <4 x i32> <i32 31, i32 31, i32 30, i32 31>, <4 x i32>* %13, align 4, !tbaa !5
  %14 = getelementptr inbounds [13 x i32], [13 x i32]* %4, i64 0, i64 11
  store i32 30, i32* %14, align 4, !tbaa !5
  %15 = getelementptr inbounds [13 x i32], [13 x i32]* %4, i64 0, i64 12
  store i32 30, i32* %15, align 16, !tbaa !5
  %16 = call i32 (i8*, ...) @__isoc99_scanf(i8* getelementptr inbounds ([9 x i8], [9 x i8]* @.str, i64 0, i64 0), i32* nonnull %1, i32* nonnull %2, i32* nonnull %3)
  %17 = load i32, i32* %1, align 4, !tbaa !5
  %18 = and i32 %17, 3
  %19 = icmp eq i32 %18, 0
  br i1 %19, label %20, label %27

20:                                               ; preds = %0
  %21 = srem i32 %17, 100
  %22 = icmp ne i32 %21, 0
  %23 = srem i32 %17, 400
  %24 = icmp eq i32 %23, 0
  %25 = or i1 %22, %24
  %26 = getelementptr inbounds [13 x i32], [13 x i32]* %4, i64 0, i64 2
  br i1 %25, label %30, label %29

27:                                               ; preds = %0
  %28 = getelementptr inbounds [13 x i32], [13 x i32]* %4, i64 0, i64 2
  store i32 28, i32* %28, align 8, !tbaa !5
  br label %31

29:                                               ; preds = %20
  store i32 28, i32* %26, align 8, !tbaa !5
  br label %31

30:                                               ; preds = %20
  store i32 29, i32* %26, align 8, !tbaa !5
  br label %31

31:                                               ; preds = %29, %27, %30
  %32 = load i32, i32* %2, align 4, !tbaa !5
  %33 = icmp sgt i32 %32, 1
  br i1 %33, label %34, label %135

34:                                               ; preds = %31
  %35 = zext i32 %32 to i64
  %36 = icmp eq i32 %32, 2
  br i1 %36, label %135, label %37, !llvm.loop !9

37:                                               ; preds = %34
  %38 = add nsw i64 %35, -2
  %39 = icmp ult i64 %38, 8
  br i1 %39, label %124, label %40

40:                                               ; preds = %37
  %41 = and i64 %38, -8
  %42 = or i64 %41, 2
  %43 = add nsw i64 %41, -8
  %44 = lshr exact i64 %43, 3
  %45 = add nuw nsw i64 %44, 1
  %46 = and i64 %45, 3
  %47 = icmp ult i64 %43, 24
  br i1 %47, label %94, label %48

48:                                               ; preds = %40
  %49 = and i64 %45, 4611686018427387900
  br label %50

50:                                               ; preds = %50, %48
  %51 = phi i64 [ 0, %48 ], [ %91, %50 ]
  %52 = phi <4 x i32> [ <i32 31, i32 0, i32 0, i32 0>, %48 ], [ %89, %50 ]
  %53 = phi <4 x i32> [ zeroinitializer, %48 ], [ %90, %50 ]
  %54 = phi i64 [ %49, %48 ], [ %92, %50 ]
  %55 = or i64 %51, 2
  %56 = getelementptr inbounds [13 x i32], [13 x i32]* %4, i64 0, i64 %55
  %57 = bitcast i32* %56 to <4 x i32>*
  %58 = load <4 x i32>, <4 x i32>* %57, align 8, !tbaa !5
  %59 = getelementptr inbounds i32, i32* %56, i64 4
  %60 = bitcast i32* %59 to <4 x i32>*
  %61 = load <4 x i32>, <4 x i32>* %60, align 8, !tbaa !5
  %62 = add <4 x i32> %58, %52
  %63 = add <4 x i32> %61, %53
  %64 = or i64 %51, 10
  %65 = getelementptr inbounds [13 x i32], [13 x i32]* %4, i64 0, i64 %64
  %66 = bitcast i32* %65 to <4 x i32>*
  %67 = load <4 x i32>, <4 x i32>* %66, align 8, !tbaa !5
  %68 = getelementptr inbounds i32, i32* %65, i64 4
  %69 = bitcast i32* %68 to <4 x i32>*
  %70 = load <4 x i32>, <4 x i32>* %69, align 8, !tbaa !5
  %71 = add <4 x i32> %67, %62
  %72 = add <4 x i32> %70, %63
  %73 = or i64 %51, 18
  %74 = getelementptr inbounds [13 x i32], [13 x i32]* %4, i64 0, i64 %73
  %75 = bitcast i32* %74 to <4 x i32>*
  %76 = load <4 x i32>, <4 x i32>* %75, align 8, !tbaa !5
  %77 = getelementptr inbounds i32, i32* %74, i64 4
  %78 = bitcast i32* %77 to <4 x i32>*
  %79 = load <4 x i32>, <4 x i32>* %78, align 8, !tbaa !5
  %80 = add <4 x i32> %76, %71
  %81 = add <4 x i32> %79, %72
  %82 = or i64 %51, 26
  %83 = getelementptr inbounds [13 x i32], [13 x i32]* %4, i64 0, i64 %82
  %84 = bitcast i32* %83 to <4 x i32>*
  %85 = load <4 x i32>, <4 x i32>* %84, align 8, !tbaa !5
  %86 = getelementptr inbounds i32, i32* %83, i64 4
  %87 = bitcast i32* %86 to <4 x i32>*
  %88 = load <4 x i32>, <4 x i32>* %87, align 8, !tbaa !5
  %89 = add <4 x i32> %85, %80
  %90 = add <4 x i32> %88, %81
  %91 = add nuw i64 %51, 32
  %92 = add i64 %54, -4
  %93 = icmp eq i64 %92, 0
  br i1 %93, label %94, label %50, !llvm.loop !11

94:                                               ; preds = %50, %40
  %95 = phi <4 x i32> [ undef, %40 ], [ %89, %50 ]
  %96 = phi <4 x i32> [ undef, %40 ], [ %90, %50 ]
  %97 = phi i64 [ 0, %40 ], [ %91, %50 ]
  %98 = phi <4 x i32> [ <i32 31, i32 0, i32 0, i32 0>, %40 ], [ %89, %50 ]
  %99 = phi <4 x i32> [ zeroinitializer, %40 ], [ %90, %50 ]
  %100 = icmp eq i64 %46, 0
  br i1 %100, label %118, label %101

101:                                              ; preds = %94, %101
  %102 = phi i64 [ %115, %101 ], [ %97, %94 ]
  %103 = phi <4 x i32> [ %113, %101 ], [ %98, %94 ]
  %104 = phi <4 x i32> [ %114, %101 ], [ %99, %94 ]
  %105 = phi i64 [ %116, %101 ], [ %46, %94 ]
  %106 = or i64 %102, 2
  %107 = getelementptr inbounds [13 x i32], [13 x i32]* %4, i64 0, i64 %106
  %108 = bitcast i32* %107 to <4 x i32>*
  %109 = load <4 x i32>, <4 x i32>* %108, align 8, !tbaa !5
  %110 = getelementptr inbounds i32, i32* %107, i64 4
  %111 = bitcast i32* %110 to <4 x i32>*
  %112 = load <4 x i32>, <4 x i32>* %111, align 8, !tbaa !5
  %113 = add <4 x i32> %109, %103
  %114 = add <4 x i32> %112, %104
  %115 = add nuw i64 %102, 8
  %116 = add i64 %105, -1
  %117 = icmp eq i64 %116, 0
  br i1 %117, label %118, label %101, !llvm.loop !13

118:                                              ; preds = %101, %94
  %119 = phi <4 x i32> [ %95, %94 ], [ %113, %101 ]
  %120 = phi <4 x i32> [ %96, %94 ], [ %114, %101 ]
  %121 = add <4 x i32> %120, %119
  %122 = call i32 @llvm.vector.reduce.add.v4i32(<4 x i32> %121)
  %123 = icmp eq i64 %38, %41
  br i1 %123, label %135, label %124

124:                                              ; preds = %37, %118
  %125 = phi i64 [ 2, %37 ], [ %42, %118 ]
  %126 = phi i32 [ 31, %37 ], [ %122, %118 ]
  br label %127

127:                                              ; preds = %124, %127
  %128 = phi i64 [ %133, %127 ], [ %125, %124 ]
  %129 = phi i32 [ %132, %127 ], [ %126, %124 ]
  %130 = getelementptr inbounds [13 x i32], [13 x i32]* %4, i64 0, i64 %128
  %131 = load i32, i32* %130, align 4, !tbaa !5
  %132 = add nsw i32 %131, %129
  %133 = add nuw nsw i64 %128, 1
  %134 = icmp eq i64 %133, %35
  br i1 %134, label %135, label %127, !llvm.loop !15

135:                                              ; preds = %127, %34, %118, %31
  %136 = phi i32 [ 0, %31 ], [ 31, %34 ], [ %122, %118 ], [ %132, %127 ]
  %137 = load i32, i32* %3, align 4, !tbaa !5
  %138 = add nsw i32 %137, %136
  %139 = call i32 (i8*, ...) @printf(i8* nonnull dereferenceable(1) getelementptr inbounds ([3 x i8], [3 x i8]* @.str.1, i64 0, i64 0), i32 %138)
  %140 = load %struct._IO_FILE*, %struct._IO_FILE** @stdin, align 8, !tbaa !17
  %141 = call i32 @getc(%struct._IO_FILE* %140) #5
  %142 = load %struct._IO_FILE*, %struct._IO_FILE** @stdin, align 8, !tbaa !17
  %143 = call i32 @getc(%struct._IO_FILE* %142) #5
  call void @llvm.lifetime.end.p0i8(i64 52, i8* nonnull %8) #5
  call void @llvm.lifetime.end.p0i8(i64 4, i8* nonnull %7) #5
  call void @llvm.lifetime.end.p0i8(i64 4, i8* nonnull %6) #5
  call void @llvm.lifetime.end.p0i8(i64 4, i8* nonnull %5) #5
  ret i32 0
}

; Function Attrs: nofree nounwind
declare noundef i32 @__isoc99_scanf(i8* nocapture noundef readonly, ...) local_unnamed_addr #3

; Function Attrs: nofree nounwind
declare noundef i32 @printf(i8* nocapture noundef readonly, ...) local_unnamed_addr #3

; Function Attrs: nofree nounwind
declare noundef i32 @getc(%struct._IO_FILE* nocapture noundef) local_unnamed_addr #3

; Function Attrs: nofree nosync nounwind readnone willreturn
declare i32 @llvm.vector.reduce.add.v4i32(<4 x i32>) #4


!llvm.module.flags = !{!0, !1, !2, !3}
!llvm.ident = !{!4}

!0 = !{i32 1, !"wchar_size", i32 4}
!1 = !{i32 7, !"PIC Level", i32 2}
!2 = !{i32 7, !"PIE Level", i32 2}
!3 = !{i32 7, !"uwtable", i32 1}
!4 = !{!"clang version 13.0.0"}
!5 = !{!6, !6, i64 0}
!6 = !{!"int", !7, i64 0}
!7 = !{!"omnipotent char", !8, i64 0}
!8 = !{!"Simple C/C++ TBAA"}
!9 = distinct !{!9, !10}
!10 = !{!"llvm.loop.mustprogress"}
!11 = distinct !{!11, !10, !12}
!12 = !{!"llvm.loop.isvectorized", i32 1}
!13 = distinct !{!13, !14}
!14 = !{!"llvm.loop.unroll.disable"}
!15 = distinct !{!15, !10, !16, !12}
!16 = !{!"llvm.loop.unroll.runtime.disable"}
!17 = !{!18, !18, i64 0}
!18 = !{!"any pointer", !7, i64 0}
